(dp1
S'lang'
p2
S'en'
p3
sS'_volre'
p4
(dp5
S'month'
p6
S'^(?P<year>[0-9]{4,4})-(?P<month>[a-zA-Z]+)$'
p7
sS'week'
p8
S'^Week-of-Mon-(?P<year>[0-9]{4,4})(?P<month>[01][0-9])(?P<day>[0123][0-9])'
p9
sS'quarter'
p10
S'^(?P<year>[0-9]{4,4})q(?P<quarter>[1234])$'
p11
sS'day'
p12
S'^(?P<year>[0-9]{4,4})(?P<month>[01][0-9])(?P<day>[0123][0-9])$'
p13
sS'year'
p14
S'^(?P<year>[0-9]{4,4})$'
p15
ssS'archives'
p16
(lp17
S'2017-November'
p18
aS'2017-May'
p19
aS'2017-April'
p20
aS'2017-February'
p21
aS'2017-January'
p22
aS'2016-November'
p23
aS'2016-July'
p24
aS'2016-June'
p25
aS'2016-May'
p26
aS'2016-April'
p27
aS'2016-February'
p28
aS'2015-November'
p29
aS'2015-August'
p30
aS'2015-July'
p31
aS'2015-February'
p32
aS'2015-January'
p33
aS'2014-October'
p34
aS'2014-September'
p35
aS'2014-August'
p36
aS'2014-July'
p37
aS'2014-June'
p38
aS'2014-April'
p39
aS'2014-February'
p40
aS'2013-November'
p41
asS'update_TOC'
p42
I0
sS'sequence'
p43
I81
sS'basedir'
p44
S'/var/lib/mailman/archives/private/cam-compiler-hacking'
p45
sS'depth'
p46
I1
sS'version'
p47
S'0.09 (Mailman edition)'
p48
sS'lastdate'
p49
S'Thu Nov 23 10:41:38 2017'
p50
sS'archivedate'
p51
S'Thu Nov 23 10:35:46 2017'
p52
sS'_dirty_archives'
p53
(lp54
sS'firstdate'
p55
S'Thu Nov 23 10:18:46 2017'
p56
sS'type'
p57
S'Thread'
p58
sS'archive'
p59
S'2017-November'
p60
sS'size'
p61
I2
s.